target datalayout = "e-m:e-p270:32:32-p271:32:32-p272:64:64-i64:64-i128:128-f80:128-n8:16:32:64-S128"
target triple = "x86_64-pc-linux-gnu"

; Function Attrs: inlinehint nounwind uwtable
define internal void @put_pixels8_xy2_8_c(ptr noundef %0, ptr noundef %1, i64 noundef %2, i32 noundef %3) #4 {
  %5 = alloca ptr, align 8
  %6 = alloca ptr, align 8
  %7 = alloca i64, align 8
  %8 = alloca i32, align 4
  %9 = alloca i32, align 4
  %10 = alloca i32, align 4
  %11 = alloca i32, align 4
  %12 = alloca i32, align 4
  %13 = alloca i32, align 4
  %14 = alloca i32, align 4
  %15 = alloca i32, align 4
  %16 = alloca i32, align 4
  %17 = alloca i32, align 4
  %18 = alloca i32, align 4
  store ptr %0, ptr %5, align 8, !tbaa !10
  store ptr %1, ptr %6, align 8, !tbaa !10
  store i64 %2, ptr %7, align 8, !tbaa !12
  store i32 %3, ptr %8, align 4, !tbaa !14
  call void @llvm.lifetime.start.p0(i64 4, ptr %9) #7
  store i32 0, ptr %9, align 4, !tbaa !14
  br label %19

19:                                               ; preds = %159, %4
  %20 = load i32, ptr %9, align 4, !tbaa !14
  %21 = icmp slt i32 %20, 2
  br i1 %21, label %22, label %162

22:                                               ; preds = %19
  call void @llvm.lifetime.start.p0(i64 4, ptr %10) #7
  call void @llvm.lifetime.start.p0(i64 4, ptr %11) #7
  %23 = load ptr, ptr %6, align 8, !tbaa !10
  %24 = load i32, ptr %23, align 1, !tbaa !16
  store i32 %24, ptr %11, align 4, !tbaa !14
  call void @llvm.lifetime.start.p0(i64 4, ptr %12) #7
  %25 = load ptr, ptr %6, align 8, !tbaa !10
  %26 = getelementptr inbounds i8, ptr %25, i64 1
  %27 = load i32, ptr %26, align 1, !tbaa !16
  store i32 %27, ptr %12, align 4, !tbaa !14
  call void @llvm.lifetime.start.p0(i64 4, ptr %13) #7
  %28 = load i32, ptr %11, align 4, !tbaa !14
  %29 = zext i32 %28 to i64
  %30 = and i64 %29, 50529027
  %31 = load i32, ptr %12, align 4, !tbaa !14
  %32 = zext i32 %31 to i64
  %33 = and i64 %32, 50529027
  %34 = add i64 %30, %33
  %35 = add i64 %34, 33686018
  %36 = trunc i64 %35 to i32
  store i32 %36, ptr %13, align 4, !tbaa !14
  call void @llvm.lifetime.start.p0(i64 4, ptr %14) #7
  %37 = load i32, ptr %11, align 4, !tbaa !14
  %38 = zext i32 %37 to i64
  %39 = and i64 %38, 4244438268
  %40 = lshr i64 %39, 2
  %41 = load i32, ptr %12, align 4, !tbaa !14
  %42 = zext i32 %41 to i64
  %43 = and i64 %42, 4244438268
  %44 = lshr i64 %43, 2
  %45 = add i64 %40, %44
  %46 = trunc i64 %45 to i32
  store i32 %46, ptr %14, align 4, !tbaa !14
  call void @llvm.lifetime.start.p0(i64 4, ptr %15) #7
  call void @llvm.lifetime.start.p0(i64 4, ptr %16) #7
  %47 = load i64, ptr %7, align 8, !tbaa !12
  %48 = load ptr, ptr %6, align 8, !tbaa !10
  %49 = getelementptr inbounds i8, ptr %48, i64 %47
  store ptr %49, ptr %6, align 8, !tbaa !10
  store i32 0, ptr %10, align 4, !tbaa !14
  br label %50

50:                                               ; preds = %140, %22
  %51 = load i32, ptr %10, align 4, !tbaa !14
  %52 = load i32, ptr %8, align 4, !tbaa !14
  %53 = icmp slt i32 %51, %52
  br i1 %53, label %54, label %143

54:                                               ; preds = %50
  call void @llvm.lifetime.start.p0(i64 4, ptr %17) #7
  %55 = load ptr, ptr %6, align 8, !tbaa !10
  %56 = load i32, ptr %55, align 1, !tbaa !16
  store i32 %56, ptr %17, align 4, !tbaa !14
  call void @llvm.lifetime.start.p0(i64 4, ptr %18) #7
  %57 = load ptr, ptr %6, align 8, !tbaa !10
  %58 = getelementptr inbounds i8, ptr %57, i64 1
  %59 = load i32, ptr %58, align 1, !tbaa !16
  store i32 %59, ptr %18, align 4, !tbaa !14
  %60 = load i32, ptr %17, align 4, !tbaa !14
  %61 = zext i32 %60 to i64
  %62 = and i64 %61, 50529027
  %63 = load i32, ptr %18, align 4, !tbaa !14
  %64 = zext i32 %63 to i64
  %65 = and i64 %64, 50529027
  %66 = add i64 %62, %65
  %67 = trunc i64 %66 to i32
  store i32 %67, ptr %15, align 4, !tbaa !14
  %68 = load i32, ptr %17, align 4, !tbaa !14
  %69 = zext i32 %68 to i64
  %70 = and i64 %69, 4244438268
  %71 = lshr i64 %70, 2
  %72 = load i32, ptr %18, align 4, !tbaa !14
  %73 = zext i32 %72 to i64
  %74 = and i64 %73, 4244438268
  %75 = lshr i64 %74, 2
  %76 = add i64 %71, %75
  %77 = trunc i64 %76 to i32
  store i32 %77, ptr %16, align 4, !tbaa !14
  %78 = load i32, ptr %14, align 4, !tbaa !14
  %79 = load i32, ptr %16, align 4, !tbaa !14
  %80 = add i32 %78, %79
  %81 = zext i32 %80 to i64
  %82 = load i32, ptr %13, align 4, !tbaa !14
  %83 = load i32, ptr %15, align 4, !tbaa !14
  %84 = add i32 %82, %83
  %85 = lshr i32 %84, 2
  %86 = zext i32 %85 to i64
  %87 = and i64 %86, 252645135
  %88 = add i64 %81, %87
  %89 = trunc i64 %88 to i32
  %90 = load ptr, ptr %5, align 8, !tbaa !10
  store i32 %89, ptr %90, align 4, !tbaa !14
  %91 = load i64, ptr %7, align 8, !tbaa !12
  %92 = load ptr, ptr %6, align 8, !tbaa !10
  %93 = getelementptr inbounds i8, ptr %92, i64 %91
  store ptr %93, ptr %6, align 8, !tbaa !10
  %94 = load i64, ptr %7, align 8, !tbaa !12
  %95 = load ptr, ptr %5, align 8, !tbaa !10
  %96 = getelementptr inbounds i8, ptr %95, i64 %94
  store ptr %96, ptr %5, align 8, !tbaa !10
  %97 = load ptr, ptr %6, align 8, !tbaa !10
  %98 = load i32, ptr %97, align 1, !tbaa !16
  store i32 %98, ptr %17, align 4, !tbaa !14
  %99 = load ptr, ptr %6, align 8, !tbaa !10
  %100 = getelementptr inbounds i8, ptr %99, i64 1
  %101 = load i32, ptr %100, align 1, !tbaa !16
  store i32 %101, ptr %18, align 4, !tbaa !14
  %102 = load i32, ptr %17, align 4, !tbaa !14
  %103 = zext i32 %102 to i64
  %104 = and i64 %103, 50529027
  %105 = load i32, ptr %18, align 4, !tbaa !14
  %106 = zext i32 %105 to i64
  %107 = and i64 %106, 50529027
  %108 = add i64 %104, %107
  %109 = add i64 %108, 33686018
  %110 = trunc i64 %109 to i32
  store i32 %110, ptr %13, align 4, !tbaa !14
  %111 = load i32, ptr %17, align 4, !tbaa !14
  %112 = zext i32 %111 to i64
  %113 = and i64 %112, 4244438268
  %114 = lshr i64 %113, 2
  %115 = load i32, ptr %18, align 4, !tbaa !14
  %116 = zext i32 %115 to i64
  %117 = and i64 %116, 4244438268
  %118 = lshr i64 %117, 2
  %119 = add i64 %114, %118
  %120 = trunc i64 %119 to i32
  store i32 %120, ptr %14, align 4, !tbaa !14
  %121 = load i32, ptr %14, align 4, !tbaa !14
  %122 = load i32, ptr %16, align 4, !tbaa !14
  %123 = add i32 %121, %122
  %124 = zext i32 %123 to i64
  %125 = load i32, ptr %13, align 4, !tbaa !14
  %126 = load i32, ptr %15, align 4, !tbaa !14
  %127 = add i32 %125, %126
  %128 = lshr i32 %127, 2
  %129 = zext i32 %128 to i64
  %130 = and i64 %129, 252645135
  %131 = add i64 %124, %130
  %132 = trunc i64 %131 to i32
  %133 = load ptr, ptr %5, align 8, !tbaa !10
  store i32 %132, ptr %133, align 4, !tbaa !14
  %134 = load i64, ptr %7, align 8, !tbaa !12
  %135 = load ptr, ptr %6, align 8, !tbaa !10
  %136 = getelementptr inbounds i8, ptr %135, i64 %134
  store ptr %136, ptr %6, align 8, !tbaa !10
  %137 = load i64, ptr %7, align 8, !tbaa !12
  %138 = load ptr, ptr %5, align 8, !tbaa !10
  %139 = getelementptr inbounds i8, ptr %138, i64 %137
  store ptr %139, ptr %5, align 8, !tbaa !10
  call void @llvm.lifetime.end.p0(i64 4, ptr %18) #7
  call void @llvm.lifetime.end.p0(i64 4, ptr %17) #7
  br label %140

140:                                              ; preds = %54
  %141 = load i32, ptr %10, align 4, !tbaa !14
  %142 = add nsw i32 %141, 2
  store i32 %142, ptr %10, align 4, !tbaa !14
  br label %50, !llvm.loop !38

143:                                              ; preds = %50
  %144 = load i64, ptr %7, align 8, !tbaa !12
  %145 = load i32, ptr %8, align 4, !tbaa !14
  %146 = add nsw i32 %145, 1
  %147 = sext i32 %146 to i64
  %148 = mul nsw i64 %144, %147
  %149 = sub nsw i64 4, %148
  %150 = load ptr, ptr %6, align 8, !tbaa !10
  %151 = getelementptr inbounds i8, ptr %150, i64 %149
  store ptr %151, ptr %6, align 8, !tbaa !10
  %152 = load i64, ptr %7, align 8, !tbaa !12
  %153 = load i32, ptr %8, align 4, !tbaa !14
  %154 = sext i32 %153 to i64
  %155 = mul nsw i64 %152, %154
  %156 = sub nsw i64 4, %155
  %157 = load ptr, ptr %5, align 8, !tbaa !10
  %158 = getelementptr inbounds i8, ptr %157, i64 %156
  store ptr %158, ptr %5, align 8, !tbaa !10
  call void @llvm.lifetime.end.p0(i64 4, ptr %16) #7
  call void @llvm.lifetime.end.p0(i64 4, ptr %15) #7
  call void @llvm.lifetime.end.p0(i64 4, ptr %14) #7
  call void @llvm.lifetime.end.p0(i64 4, ptr %13) #7
  call void @llvm.lifetime.end.p0(i64 4, ptr %12) #7
  call void @llvm.lifetime.end.p0(i64 4, ptr %11) #7
  call void @llvm.lifetime.end.p0(i64 4, ptr %10) #7
  br label %159

159:                                              ; preds = %143
  %160 = load i32, ptr %9, align 4, !tbaa !14
  %161 = add nsw i32 %160, 1
  store i32 %161, ptr %9, align 4, !tbaa !14
  br label %19, !llvm.loop !39

162:                                              ; preds = %19
  call void @llvm.lifetime.end.p0(i64 4, ptr %9) #7
  ret void
}

; Function Attrs: nounwind uwtable
define internal void @put_rv40_qpel8_mc33_c(ptr noundef %0, ptr noundef %1, i64 noundef %2) #3 {
  %4 = alloca ptr, align 8
  %5 = alloca ptr, align 8
  %6 = alloca i64, align 8
  store ptr %0, ptr %4, align 8, !tbaa !10
  store ptr %1, ptr %5, align 8, !tbaa !10
  store i64 %2, ptr %6, align 8, !tbaa !12
  %7 = load ptr, ptr %4, align 8, !tbaa !10
  %8 = load ptr, ptr %5, align 8, !tbaa !10
  %9 = load i64, ptr %6, align 8, !tbaa !12
  call void @put_pixels8_xy2_8_c(ptr noundef %7, ptr noundef %8, i64 noundef %9, i32 noundef 8)
  ret void
}