; Function Attrs: nofree norecurse nosync nounwind memory(argmem: readwrite) uwtable
define internal void @put_rv40_qpel8_mc33_c(ptr noundef writeonly captures(none) %0, ptr noundef readonly captures(none) %1, i64 noundef %2) #3 {
  %.neg = mul i64 %2, -9
  %4 = shl nsw i64 %2, 3
  %5 = sub nsw i64 4, %4
  br label %6

6:                                                ; preds = %56, %3
  %.065.i = phi ptr [ %0, %3 ], [ %59, %56 ]
  %.04864.i = phi ptr [ %1, %3 ], [ %58, %56 ]
  %7 = phi i1 [ true, %3 ], [ false, %56 ]
  %8 = load i32, ptr %.04864.i, align 1, !tbaa !8
  %9 = getelementptr inbounds nuw i8, ptr %.04864.i, i64 1
  %10 = load i32, ptr %9, align 1, !tbaa !8
  %11 = and i32 %8, 50529027
  %12 = and i32 %10, 50529027
  %13 = add nuw nsw i32 %11, 33686018
  %14 = add nuw nsw i32 %13, %12
  %15 = lshr i32 %8, 2
  %16 = and i32 %15, 1061109567
  %17 = lshr i32 %10, 2
  %18 = and i32 %17, 1061109567
  %narrow.i = add nuw nsw i32 %18, %16
  %.14957.i = getelementptr inbounds i8, ptr %.04864.i, i64 %2
  br label %19

19:                                               ; preds = %19, %6
  %.14962.i = phi ptr [ %.14957.i, %6 ], [ %.149.i, %19 ]
  %.161.i = phi ptr [ %.065.i, %6 ], [ %53, %19 ]
  %.05160.i = phi i32 [ 0, %6 ], [ %54, %19 ]
  %.05259.i = phi i32 [ %narrow.i, %6 ], [ %narrow56.i, %19 ]
  %.05358.i = phi i32 [ %14, %6 ], [ %43, %19 ]
  %20 = load i32, ptr %.14962.i, align 1, !tbaa !8
  %21 = getelementptr inbounds nuw i8, ptr %.14962.i, i64 1
  %22 = load i32, ptr %21, align 1, !tbaa !8
  %23 = and i32 %20, 50529027
  %24 = and i32 %22, 50529027
  %25 = add nuw nsw i32 %24, %23
  %26 = lshr i32 %20, 2
  %27 = and i32 %26, 1061109567
  %28 = lshr i32 %22, 2
  %29 = and i32 %28, 1061109567
  %narrow55.i = add nuw nsw i32 %29, %27
  %30 = add nuw i32 %narrow55.i, %.05259.i
  %31 = add nuw nsw i32 %25, %.05358.i
  %32 = lshr i32 %31, 2
  %33 = and i32 %32, 252645135
  %34 = add i32 %30, %33
  store i32 %34, ptr %.161.i, align 4, !tbaa !9
  %35 = getelementptr inbounds i8, ptr %.14962.i, i64 %2
  %36 = getelementptr inbounds i8, ptr %.161.i, i64 %2
  %37 = load i32, ptr %35, align 1, !tbaa !8
  %38 = getelementptr inbounds nuw i8, ptr %35, i64 1
  %39 = load i32, ptr %38, align 1, !tbaa !8
  %40 = and i32 %37, 50529027
  %41 = and i32 %39, 50529027
  %42 = add nuw nsw i32 %40, 33686018
  %43 = add nuw nsw i32 %42, %41
  %44 = lshr i32 %37, 2
  %45 = and i32 %44, 1061109567
  %46 = lshr i32 %39, 2
  %47 = and i32 %46, 1061109567
  %narrow56.i = add nuw nsw i32 %47, %45
  %48 = add nuw i32 %narrow56.i, %narrow55.i
  %49 = add nuw nsw i32 %43, %25
  %50 = lshr i32 %49, 2
  %51 = and i32 %50, 117901063
  %52 = add i32 %48, %51
  store i32 %52, ptr %36, align 4, !tbaa !9
  %53 = getelementptr inbounds i8, ptr %36, i64 %2
  %54 = add nuw nsw i32 %.05160.i, 2
  %.149.i = getelementptr inbounds i8, ptr %35, i64 %2
  %55 = icmp samesign ult i32 %.05160.i, 6
  br i1 %55, label %19, label %56, !llvm.loop !11

56:                                               ; preds = %19
  %57 = getelementptr i8, ptr %.149.i, i64 %.neg
  %58 = getelementptr i8, ptr %57, i64 4
  %59 = getelementptr inbounds i8, ptr %53, i64 %5
  br i1 %7, label %6, label %put_pixels8_xy2_8_c.exit, !llvm.loop !13

put_pixels8_xy2_8_c.exit:                         ; preds = %56
  ret void
}